; Function Attrs: mustprogress uwtable
define hidden void @_ZN3sat4ddfw10do_restartEv(ptr noundef nonnull align 8 dereferenceable(434) %0) local_unnamed_addr #4 align 2 {
  %2 = getelementptr inbounds nuw i8, ptr %0, i64 88
  %3 = load ptr, ptr %2, align 8, !tbaa !34
  %4 = icmp eq ptr %3, null
  %5 = getelementptr inbounds i8, ptr %3, i64 -4
  %6 = getelementptr inbounds nuw i8, ptr %0, i64 216
  br i1 %4, label %_ZN3sat4ddfw13reinit_valuesEv.exit, label %.split.i

.split.i:                                         ; preds = %1
  %7 = load i32, ptr %5, align 4, !tbaa !26
  %.not.i = icmp eq i32 %7, 0
  br i1 %.not.i, label %_ZN3sat4ddfw13reinit_valuesEv.exit, label %.lr.ph.preheader.i

.lr.ph.preheader.i:                               ; preds = %.split.i
  %.pre.i = load i32, ptr %6, align 8, !tbaa !87
  br label %.lr.ph.i

.lr.ph.i:                                         ; preds = %_ZNK3sat4ddfw8num_varsEv.exit.i, %.lr.ph.preheader.i
  %8 = phi i32 [ %.pre.i, %.lr.ph.preheader.i ], [ %30, %_ZNK3sat4ddfw8num_varsEv.exit.i ]
  %indvars.iv.i = phi i64 [ 0, %.lr.ph.preheader.i ], [ %indvars.iv.next.i, %_ZNK3sat4ddfw8num_varsEv.exit.i ]
  %9 = getelementptr inbounds nuw %"struct.sat::ddfw::var_info", ptr %3, i64 %indvars.iv.i, i32 4
  %10 = load i32, ptr %9, align 4, !tbaa !26
  %11 = mul i32 %8, 214013
  %12 = add i32 %11, 2531011
  store i32 %12, ptr %6, align 8, !tbaa !87
  %13 = lshr i32 %12, 16
  %14 = and i32 %13, 32767
  %15 = tail call i32 @llvm.abs.i32(i32 %10, i1 true)
  %16 = add nuw nsw i32 %15, 1
  %17 = urem i32 %14, %16
  %18 = icmp eq i32 %17, 0
  br i1 %18, label %19, label %26

19:                                               ; preds = %.lr.ph.i
  %20 = mul i32 %12, 214013
  %21 = add i32 %20, 2531011
  store i32 %21, ptr %6, align 8, !tbaa !87
  %22 = lshr i32 %21, 16
  %23 = trunc i32 %22 to i8
  %24 = and i8 %23, 1
  %25 = xor i8 %24, 1
  br label %_ZNK3sat4ddfw8num_varsEv.exit.i

26:                                               ; preds = %.lr.ph.i
  %27 = load i32, ptr %9, align 4, !tbaa !26
  %28 = icmp sgt i32 %27, 0
  %29 = zext i1 %28 to i8
  br label %_ZNK3sat4ddfw8num_varsEv.exit.i

_ZNK3sat4ddfw8num_varsEv.exit.i:                  ; preds = %26, %19
  %30 = phi i32 [ %21, %19 ], [ %12, %26 ]
  %.sink.i = phi i8 [ %25, %19 ], [ %29, %26 ]
  %31 = getelementptr inbounds nuw %"struct.sat::ddfw::var_info", ptr %3, i64 %indvars.iv.i
  store i8 %.sink.i, ptr %31, align 1, !tbaa !89
  %indvars.iv.next.i = add nuw nsw i64 %indvars.iv.i, 1
  %32 = load i32, ptr %5, align 4, !tbaa !26
  %33 = zext i32 %32 to i64
  %34 = icmp samesign ult i64 %indvars.iv.next.i, %33
  br i1 %34, label %.lr.ph.i, label %_ZN3sat4ddfw13reinit_valuesEv.exit, !llvm.loop !102

_ZN3sat4ddfw13reinit_valuesEv.exit:               ; preds = %_ZNK3sat4ddfw8num_varsEv.exit.i, %1, %.split.i
  tail call void @_ZN3sat4ddfw16init_clause_dataEv(ptr noundef nonnull align 8 dereferenceable(434) %0)
  %35 = getelementptr inbounds nuw i8, ptr %0, i64 12
  %36 = load i32, ptr %35, align 4, !tbaa !95
  %37 = getelementptr inbounds nuw i8, ptr %0, i64 236
  %38 = load i32, ptr %37, align 4, !tbaa !94
  %39 = add i32 %38, 1
  store i32 %39, ptr %37, align 4, !tbaa !94
  %40 = tail call noundef i32 @_Z8get_lubyj(i32 noundef %39)
  %41 = mul i32 %40, %36
  %42 = zext i32 %41 to i64
  %43 = getelementptr inbounds nuw i8, ptr %0, i64 248
  %44 = load i64, ptr %43, align 8, !tbaa !96
  %45 = add i64 %44, %42
  store i64 %45, ptr %43, align 8, !tbaa !96
  ret void
}